; Function Attrs: nounwind uwtable
define internal fastcc noundef i32 @cr_add_interval(ptr nocapture noundef %0, i32 noundef %1, i32 noundef %2) unnamed_addr #5 {
  %4 = load i32, ptr %0, align 8
  %5 = add i32 %4, 2
  %6 = getelementptr inbounds i8, ptr %0, i64 4
  %7 = load i32, ptr %6, align 4
  %8 = icmp sgt i32 %5, %7
  br i1 %8, label %9, label %._crit_edge

._crit_edge:                                      ; preds = %3
  %.phi.trans.insert = getelementptr inbounds i8, ptr %0, i64 8
  %.pre = load ptr, ptr %.phi.trans.insert, align 8
  br label %21

9:                                                ; preds = %3
  %10 = mul i32 %7, 3
  %11 = sdiv i32 %10, 2
  %..i.i = tail call noundef i32 @llvm.smax.i32(i32 %5, i32 %11)
  %12 = getelementptr inbounds i8, ptr %0, i64 24
  %13 = load ptr, ptr %12, align 8
  %14 = getelementptr inbounds i8, ptr %0, i64 16
  %15 = load ptr, ptr %14, align 8
  %16 = getelementptr inbounds i8, ptr %0, i64 8
  %17 = load ptr, ptr %16, align 8
  %18 = sext i32 %..i.i to i64
  %19 = shl nsw i64 %18, 2
  %20 = tail call ptr %13(ptr noundef %15, ptr noundef %17, i64 noundef %19) #20
  %.not.i = icmp eq ptr %20, null
  br i1 %.not.i, label %cr_realloc.exit, label %cr_realloc.exit.thread

cr_realloc.exit.thread:                           ; preds = %9
  store ptr %20, ptr %16, align 8
  store i32 %..i.i, ptr %6, align 4
  %.pre13 = load i32, ptr %0, align 8
  br label %21

21:                                               ; preds = %._crit_edge, %cr_realloc.exit.thread
  %22 = phi i32 [ %4, %._crit_edge ], [ %.pre13, %cr_realloc.exit.thread ]
  %23 = phi ptr [ %.pre, %._crit_edge ], [ %20, %cr_realloc.exit.thread ]
  %24 = getelementptr inbounds i8, ptr %0, i64 8
  %25 = add i32 %22, 1
  store i32 %25, ptr %0, align 8
  %26 = sext i32 %22 to i64
  %27 = getelementptr i32, ptr %23, i64 %26
  store i32 %1, ptr %27, align 4
  %28 = load ptr, ptr %24, align 8
  %29 = load i32, ptr %0, align 8
  %30 = add i32 %29, 1
  store i32 %30, ptr %0, align 8
  %31 = sext i32 %29 to i64
  %32 = getelementptr i32, ptr %28, i64 %31
  store i32 %2, ptr %32, align 4
  br label %cr_realloc.exit

cr_realloc.exit:                                  ; preds = %9, %21
  %.0 = phi i32 [ 0, %21 ], [ -1, %9 ]
  ret i32 %.0
}